target datalayout = "e-m:e-p270:32:32-p271:32:32-p272:64:64-i64:64-i128:128-f80:128-n8:16:32:64-S128"
target triple = "x86_64-pc-linux-gnu"

%struct.dt_imageio_png_t = type { i32, i32, i32, i32, i32, i32, i32, ptr, ptr, ptr }
%struct.__jmp_buf_tag = type { [8 x i64], i32, %struct.__sigset_t }
%struct.__sigset_t = type { [16 x i64] }

; Function Attrs: nounwind uwtable
define i32 @dt_imageio_png_read_image(ptr noundef %0, ptr noundef %1) #0 {
  %3 = alloca i32, align 4
  %4 = alloca ptr, align 8
  %5 = alloca ptr, align 8
  %6 = alloca ptr, align 8
  %7 = alloca i32, align 4
  %8 = alloca ptr, align 8
  %9 = alloca i64, align 8
  %10 = alloca i32, align 4
  store ptr %0, ptr %4, align 8, !tbaa !11
  store ptr %1, ptr %5, align 8, !tbaa !27
  %11 = load ptr, ptr %4, align 8, !tbaa !11
  %12 = getelementptr inbounds nuw %struct.dt_imageio_png_t, ptr %11, i32 0, i32 8
  %13 = load ptr, ptr %12, align 8, !tbaa !21
  %14 = call ptr @png_set_longjmp_fn(ptr noundef %13, ptr noundef @longjmp, i64 noundef 200)
  %15 = getelementptr inbounds [1 x %struct.__jmp_buf_tag], ptr %14, i64 0, i64 0
  %16 = call i32 @_setjmp(ptr noundef %15) #11
  %17 = icmp ne i32 %16, 0
  br i1 %17, label %18, label %27

18:                                               ; preds = %2
  %19 = load ptr, ptr %4, align 8, !tbaa !11
  %20 = getelementptr inbounds nuw %struct.dt_imageio_png_t, ptr %19, i32 0, i32 7
  %21 = load ptr, ptr %20, align 8, !tbaa !13
  %22 = call i32 @fclose(ptr noundef %21)
  %23 = load ptr, ptr %4, align 8, !tbaa !11
  %24 = getelementptr inbounds nuw %struct.dt_imageio_png_t, ptr %23, i32 0, i32 8
  %25 = load ptr, ptr %4, align 8, !tbaa !11
  %26 = getelementptr inbounds nuw %struct.dt_imageio_png_t, ptr %25, i32 0, i32 9
  call void @png_destroy_read_struct(ptr noundef %24, ptr noundef %26, ptr noundef null)
  store i32 0, ptr %3, align 4
  br label %96

27:                                               ; preds = %2
  call void @llvm.lifetime.start.p0(i64 8, ptr %6) #10
  %28 = load ptr, ptr %4, align 8, !tbaa !11
  %29 = getelementptr inbounds nuw %struct.dt_imageio_png_t, ptr %28, i32 0, i32 3
  %30 = load i32, ptr %29, align 4, !tbaa !26
  %31 = sext i32 %30 to i64
  %32 = mul i64 8, %31
  %33 = call noalias ptr @malloc(i64 noundef %32) #12
  store ptr %33, ptr %6, align 8, !tbaa !28
  %34 = load ptr, ptr %6, align 8, !tbaa !28
  %35 = icmp ne ptr %34, null
  br i1 %35, label %45, label %36

36:                                               ; preds = %27
  %37 = load ptr, ptr %4, align 8, !tbaa !11
  %38 = getelementptr inbounds nuw %struct.dt_imageio_png_t, ptr %37, i32 0, i32 7
  %39 = load ptr, ptr %38, align 8, !tbaa !13
  %40 = call i32 @fclose(ptr noundef %39)
  %41 = load ptr, ptr %4, align 8, !tbaa !11
  %42 = getelementptr inbounds nuw %struct.dt_imageio_png_t, ptr %41, i32 0, i32 8
  %43 = load ptr, ptr %4, align 8, !tbaa !11
  %44 = getelementptr inbounds nuw %struct.dt_imageio_png_t, ptr %43, i32 0, i32 9
  call void @png_destroy_read_struct(ptr noundef %42, ptr noundef %44, ptr noundef null)
  store i32 0, ptr %3, align 4
  store i32 1, ptr %7, align 4
  br label %95

45:                                               ; preds = %27
  call void @llvm.lifetime.start.p0(i64 8, ptr %8) #10
  %46 = load ptr, ptr %5, align 8, !tbaa !27
  store ptr %46, ptr %8, align 8, !tbaa !6
  call void @llvm.lifetime.start.p0(i64 8, ptr %9) #10
  %47 = load ptr, ptr %4, align 8, !tbaa !11
  %48 = getelementptr inbounds nuw %struct.dt_imageio_png_t, ptr %47, i32 0, i32 8
  %49 = load ptr, ptr %48, align 8, !tbaa !21
  %50 = load ptr, ptr %4, align 8, !tbaa !11
  %51 = getelementptr inbounds nuw %struct.dt_imageio_png_t, ptr %50, i32 0, i32 9
  %52 = load ptr, ptr %51, align 8, !tbaa !22
  %53 = call i64 @png_get_rowbytes(ptr noundef %49, ptr noundef %52)
  store i64 %53, ptr %9, align 8, !tbaa !19
  call void @llvm.lifetime.start.p0(i64 4, ptr %10) #10
  store i32 0, ptr %10, align 4, !tbaa !30
  br label %54

54:                                               ; preds = %72, %45
  %55 = load i32, ptr %10, align 4, !tbaa !30
  %56 = load ptr, ptr %4, align 8, !tbaa !11
  %57 = getelementptr inbounds nuw %struct.dt_imageio_png_t, ptr %56, i32 0, i32 3
  %58 = load i32, ptr %57, align 4, !tbaa !26
  %59 = icmp slt i32 %55, %58
  br i1 %59, label %61, label %60

60:                                               ; preds = %54
  store i32 2, ptr %7, align 4
  call void @llvm.lifetime.end.p0(i64 4, ptr %10) #10
  br label %75

61:                                               ; preds = %54
  %62 = load ptr, ptr %8, align 8, !tbaa !6
  %63 = load i32, ptr %10, align 4, !tbaa !30
  %64 = sext i32 %63 to i64
  %65 = load i64, ptr %9, align 8, !tbaa !19
  %66 = mul i64 %64, %65
  %67 = getelementptr inbounds nuw i8, ptr %62, i64 %66
  %68 = load ptr, ptr %6, align 8, !tbaa !28
  %69 = load i32, ptr %10, align 4, !tbaa !30
  %70 = sext i32 %69 to i64
  %71 = getelementptr inbounds ptr, ptr %68, i64 %70
  store ptr %67, ptr %71, align 8, !tbaa !6
  br label %72

72:                                               ; preds = %61
  %73 = load i32, ptr %10, align 4, !tbaa !30
  %74 = add nsw i32 %73, 1
  store i32 %74, ptr %10, align 4, !tbaa !30
  br label %54

75:                                               ; preds = %60
  %76 = load ptr, ptr %4, align 8, !tbaa !11
  %77 = getelementptr inbounds nuw %struct.dt_imageio_png_t, ptr %76, i32 0, i32 8
  %78 = load ptr, ptr %77, align 8, !tbaa !21
  %79 = load ptr, ptr %6, align 8, !tbaa !28
  call void @png_read_image(ptr noundef %78, ptr noundef %79)
  %80 = load ptr, ptr %4, align 8, !tbaa !11
  %81 = getelementptr inbounds nuw %struct.dt_imageio_png_t, ptr %80, i32 0, i32 8
  %82 = load ptr, ptr %81, align 8, !tbaa !21
  %83 = load ptr, ptr %4, align 8, !tbaa !11
  %84 = getelementptr inbounds nuw %struct.dt_imageio_png_t, ptr %83, i32 0, i32 9
  %85 = load ptr, ptr %84, align 8, !tbaa !22
  call void @png_read_end(ptr noundef %82, ptr noundef %85)
  %86 = load ptr, ptr %4, align 8, !tbaa !11
  %87 = getelementptr inbounds nuw %struct.dt_imageio_png_t, ptr %86, i32 0, i32 8
  %88 = load ptr, ptr %4, align 8, !tbaa !11
  %89 = getelementptr inbounds nuw %struct.dt_imageio_png_t, ptr %88, i32 0, i32 9
  call void @png_destroy_read_struct(ptr noundef %87, ptr noundef %89, ptr noundef null)
  %90 = load ptr, ptr %6, align 8, !tbaa !28
  call void @free(ptr noundef %90) #10
  %91 = load ptr, ptr %4, align 8, !tbaa !11
  %92 = getelementptr inbounds nuw %struct.dt_imageio_png_t, ptr %91, i32 0, i32 7
  %93 = load ptr, ptr %92, align 8, !tbaa !13
  %94 = call i32 @fclose(ptr noundef %93)
  store i32 1, ptr %3, align 4
  store i32 1, ptr %7, align 4
  call void @llvm.lifetime.end.p0(i64 8, ptr %9) #10
  call void @llvm.lifetime.end.p0(i64 8, ptr %8) #10
  br label %95

95:                                               ; preds = %75, %36
  call void @llvm.lifetime.end.p0(i64 8, ptr %6) #10
  br label %96

96:                                               ; preds = %95, %18
  %97 = load i32, ptr %3, align 4
  ret i32 %97
}