; Function Attrs: nounwind uwtable
define range(i32 0, 2) i32 @dt_imageio_png_read_image(ptr noundef %0, ptr noundef %1) local_unnamed_addr #0 {
  %3 = getelementptr inbounds nuw i8, ptr %0, i64 40
  %4 = load ptr, ptr %3, align 8, !tbaa !15
  %5 = call ptr @png_set_longjmp_fn(ptr noundef %4, ptr noundef nonnull @longjmp, i64 noundef 200) #11
  %6 = call i32 @_setjmp(ptr noundef %5) #12
  %.not = icmp eq i32 %6, 0
  br i1 %.not, label %12, label %7

7:                                                ; preds = %2
  %8 = getelementptr inbounds nuw i8, ptr %0, i64 32
  %9 = load ptr, ptr %8, align 8, !tbaa !6
  %10 = call i32 @fclose(ptr noundef %9)
  %11 = getelementptr inbounds nuw i8, ptr %0, i64 48
  call void @png_destroy_read_struct(ptr noundef nonnull %3, ptr noundef nonnull %11, ptr noundef null) #11
  br label %39

12:                                               ; preds = %2
  %13 = getelementptr inbounds nuw i8, ptr %0, i64 12
  %14 = load i32, ptr %13, align 4, !tbaa !20
  %15 = sext i32 %14 to i64
  %16 = shl nsw i64 %15, 3
  %17 = call noalias ptr @malloc(i64 noundef %16) #13
  %.not30 = icmp eq ptr %17, null
  br i1 %.not30, label %18, label %23

18:                                               ; preds = %12
  %19 = getelementptr inbounds nuw i8, ptr %0, i64 32
  %20 = load ptr, ptr %19, align 8, !tbaa !6
  %21 = call i32 @fclose(ptr noundef %20)
  %22 = getelementptr inbounds nuw i8, ptr %0, i64 48
  call void @png_destroy_read_struct(ptr noundef nonnull %3, ptr noundef nonnull %22, ptr noundef null) #11
  br label %39

23:                                               ; preds = %12
  %24 = load ptr, ptr %3, align 8, !tbaa !15
  %25 = getelementptr inbounds nuw i8, ptr %0, i64 48
  %26 = load ptr, ptr %25, align 8, !tbaa !16
  %27 = call i64 @png_get_rowbytes(ptr noundef %24, ptr noundef %26) #11
  %28 = load i32, ptr %13, align 4, !tbaa !20
  %29 = icmp sgt i32 %28, 0
  br i1 %29, label %.lr.ph.preheader, label %._crit_edge

.lr.ph.preheader:                                 ; preds = %23
  %wide.trip.count = zext nneg i32 %28 to i64
  br label %.lr.ph

._crit_edge:                                      ; preds = %.lr.ph, %23
  %30 = load ptr, ptr %3, align 8, !tbaa !15
  call void @png_read_image(ptr noundef %30, ptr noundef nonnull %17) #11
  %31 = load ptr, ptr %3, align 8, !tbaa !15
  %32 = load ptr, ptr %25, align 8, !tbaa !16
  call void @png_read_end(ptr noundef %31, ptr noundef %32) #11
  call void @png_destroy_read_struct(ptr noundef nonnull %3, ptr noundef nonnull %25, ptr noundef null) #11
  call void @free(ptr noundef nonnull %17) #11
  %33 = getelementptr inbounds nuw i8, ptr %0, i64 32
  %34 = load ptr, ptr %33, align 8, !tbaa !6
  %35 = call i32 @fclose(ptr noundef %34)
  br label %39

.lr.ph:                                           ; preds = %.lr.ph.preheader, %.lr.ph
  %indvars.iv = phi i64 [ 0, %.lr.ph.preheader ], [ %indvars.iv.next, %.lr.ph ]
  %36 = mul i64 %27, %indvars.iv
  %37 = getelementptr inbounds nuw i8, ptr %1, i64 %36
  %38 = getelementptr inbounds nuw ptr, ptr %17, i64 %indvars.iv
  store ptr %37, ptr %38, align 8, !tbaa !21
  %indvars.iv.next = add nuw nsw i64 %indvars.iv, 1
  %exitcond.not = icmp eq i64 %indvars.iv.next, %wide.trip.count
  br i1 %exitcond.not, label %._crit_edge, label %.lr.ph

39:                                               ; preds = %18, %._crit_edge, %7
  %.028 = phi i32 [ 0, %7 ], [ 1, %._crit_edge ], [ 0, %18 ]
  ret i32 %.028
}